target datalayout = "e-m:e-p270:32:32-p271:32:32-p272:64:64-i64:64-i128:128-f80:128-n8:16:32:64-S128"
target triple = "x86_64-pc-linux-gnu"

@.str.36 = private unnamed_addr constant [25 x i8] c"table or string expected\00", align 1

; Function Attrs: mustprogress uwtable
define internal noundef i32 @_ZL11luaB_rawlenP9lua_State(ptr noundef %0) #0 {
  %2 = alloca ptr, align 8
  %3 = alloca i32, align 4
  %4 = alloca i32, align 4
  store ptr %0, ptr %2, align 8
  %5 = load ptr, ptr %2, align 8
  %6 = call noundef i32 @_Z8lua_typeP9lua_Statei(ptr noundef %5, i32 noundef 1)
  store i32 %6, ptr %3, align 4
  %7 = load i32, ptr %3, align 4
  %8 = icmp eq i32 %7, 6
  br i1 %8, label %12, label %9

9:                                                ; preds = %1
  %10 = load i32, ptr %3, align 4
  %11 = icmp eq i32 %10, 5
  br i1 %11, label %12, label %13

12:                                               ; preds = %9, %1
  br label %16

13:                                               ; preds = %9
  %14 = load ptr, ptr %2, align 8
  call void @_Z14luaL_argerrorLP9lua_StateiPKc(ptr noundef %14, i32 noundef 1, ptr noundef @.str.36) #5
  unreachable

15:                                               ; No predecessors!
  br label %16

16:                                               ; preds = %15, %12
  %17 = load ptr, ptr %2, align 8
  %18 = call noundef i32 @_Z10lua_objlenP9lua_Statei(ptr noundef %17, i32 noundef 1)
  store i32 %18, ptr %4, align 4
  %19 = load ptr, ptr %2, align 8
  %20 = load i32, ptr %4, align 4
  call void @_Z15lua_pushintegerP9lua_Statei(ptr noundef %19, i32 noundef %20)
  ret i32 1
}