; Function Attrs: mustprogress uwtable
define internal noundef i32 @_ZL11luaB_rawlenP9lua_State(ptr noundef %0) #0 {
  %2 = tail call noundef i32 @_Z8lua_typeP9lua_Statei(ptr noundef %0, i32 noundef 1)
  %3 = add i32 %2, -5
  %or.cond = icmp ult i32 %3, 2
  br i1 %or.cond, label %5, label %4

4:                                                ; preds = %1
  tail call void @_Z14luaL_argerrorLP9lua_StateiPKc(ptr noundef %0, i32 noundef 1, ptr noundef nonnull @.str.36) #9
  unreachable

5:                                                ; preds = %1
  %6 = tail call noundef i32 @_Z10lua_objlenP9lua_Statei(ptr noundef %0, i32 noundef 1)
  tail call void @_Z15lua_pushintegerP9lua_Statei(ptr noundef %0, i32 noundef %6)
  ret i32 1
}